target datalayout = "e-m:e-p270:32:32-p271:32:32-p272:64:64-i64:64-i128:128-f80:128-n8:16:32:64-S128"
target triple = "x86_64-pc-linux-gnu"

%struct.log_filter_t = type { ptr, i8, i32 }
%struct.__va_list_tag = type { i32, i32, ptr, ptr }
%struct.ws_log_manifest_t = type { %struct.tm, i64, i64 }
%struct.tm = type { i32, i32, i32, i32, i32, i32, i32, i32, i32, i64, ptr }

@fatal_log_level = internal global i32 7, align 4
@fatal_filter = internal global ptr null, align 8
@registered_log_writer_data = internal global ptr null, align 8
@registered_log_writer = internal global ptr null, align 8
@registered_progname = internal global ptr @.str.62, align 8
@stdout = external global ptr, align 8
@stdout_color_enabled = internal global i8 0, align 1
@stderr = external global ptr, align 8
@stderr_color_enabled = internal global i8 0, align 1
@stdout_logging_enabled = internal global i8 0, align 1
@custom_log = internal global ptr null, align 8
@.str.64 = private unnamed_addr constant [39 x i8] c"Aborting on fatal log level exception\0A\00", align 1
@.str.65 = private unnamed_addr constant [40 x i8] c"Aborting on fatal log domain exception\0A\00", align 1
@.str.66 = private unnamed_addr constant [16 x i8] c" ** (%s:%ld) %s\00", align 1

; Function Attrs: inlinehint nounwind null_pointer_is_valid sspstrong uwtable
define internal zeroext i1 @console_color_enabled(i32 noundef %0) #13 {
  %2 = alloca i1, align 1
  %3 = alloca i32, align 4
  store i32 %0, ptr %3, align 4
  %4 = load i32, ptr %3, align 4
  %5 = icmp ule i32 %4, 3
  br i1 %5, label %6, label %12

6:                                                ; preds = %1
  %7 = load i8, ptr @stdout_logging_enabled, align 1, !range !6, !noundef !7
  %8 = trunc i8 %7 to i1
  br i1 %8, label %9, label %12

9:                                                ; preds = %6
  %10 = load i8, ptr @stdout_color_enabled, align 1, !range !6, !noundef !7
  %11 = trunc i8 %10 to i1
  store i1 %11, ptr %2, align 1
  br label %15

12:                                               ; preds = %6, %1
  %13 = load i8, ptr @stderr_color_enabled, align 1, !range !6, !noundef !7
  %14 = trunc i8 %13 to i1
  store i1 %14, ptr %2, align 1
  br label %15

15:                                               ; preds = %12, %9
  %16 = load i1, ptr %2, align 1
  ret i1 %16
}

; Function Attrs: inlinehint nounwind null_pointer_is_valid sspstrong uwtable
define internal ptr @console_file(i32 noundef %0) #13 {
  %2 = alloca ptr, align 8
  %3 = alloca i32, align 4
  store i32 %0, ptr %3, align 4
  %4 = load i32, ptr %3, align 4
  %5 = icmp ule i32 %4, 3
  br i1 %5, label %6, label %11

6:                                                ; preds = %1
  %7 = load i8, ptr @stdout_logging_enabled, align 1, !range !6, !noundef !7
  %8 = trunc i8 %7 to i1
  br i1 %8, label %9, label %11

9:                                                ; preds = %6
  %10 = load ptr, ptr @stdout, align 8
  store ptr %10, ptr %2, align 8
  br label %13

11:                                               ; preds = %6, %1
  %12 = load ptr, ptr @stderr, align 8
  store ptr %12, ptr %2, align 8
  br label %13

13:                                               ; preds = %11, %9
  %14 = load ptr, ptr %2, align 8
  ret ptr %14
}

; Function Attrs: null_pointer_is_valid sspstrong uwtable
define internal void @log_write_fatal_msg(ptr noundef %0, i64 noundef %1, ptr noundef %2) #1 {
  %4 = alloca ptr, align 8
  %5 = alloca i64, align 8
  %6 = alloca ptr, align 8
  store ptr %0, ptr %4, align 8
  store i64 %1, ptr %5, align 8
  store ptr %2, ptr %6, align 8
  %7 = load ptr, ptr %4, align 8
  %8 = load ptr, ptr @registered_progname, align 8
  %9 = load i64, ptr %5, align 8
  %10 = load ptr, ptr %6, align 8
  %11 = call i32 (ptr, i32, ptr, ...) @__fprintf_chk(ptr noundef %7, i32 noundef 2, ptr noundef @.str.66, ptr noundef %8, i64 noundef %9, ptr noundef %10)
  ret void
}

; Function Attrs: inlinehint null_pointer_is_valid sspstrong uwtable
define internal zeroext i1 @filter_contains(ptr noundef %0, ptr noundef %1) #2 {
  %3 = alloca i1, align 1
  %4 = alloca ptr, align 8
  %5 = alloca ptr, align 8
  %6 = alloca ptr, align 8
  %7 = alloca i32, align 4
  store ptr %0, ptr %4, align 8
  store ptr %1, ptr %5, align 8
  %8 = load ptr, ptr %4, align 8
  %9 = icmp eq ptr %8, null
  br i1 %9, label %18, label %10

10:                                               ; preds = %2
  %11 = load ptr, ptr %5, align 8
  %12 = icmp eq ptr %11, null
  br i1 %12, label %18, label %13

13:                                               ; preds = %10
  %14 = load ptr, ptr %5, align 8
  %15 = load i8, ptr %14, align 1
  %16 = sext i8 %15 to i32
  %17 = icmp eq i32 %16, 0
  br i1 %17, label %18, label %19

18:                                               ; preds = %13, %10, %2
  store i1 false, ptr %3, align 1
  br label %42

19:                                               ; preds = %13
  call void @llvm.lifetime.start.p0(i64 8, ptr %6) #19
  %20 = load ptr, ptr %4, align 8
  %21 = getelementptr inbounds nuw %struct.log_filter_t, ptr %20, i32 0, i32 0
  %22 = load ptr, ptr %21, align 8
  store ptr %22, ptr %6, align 8
  br label %23

23:                                               ; preds = %36, %19
  %24 = load ptr, ptr %6, align 8
  %25 = load ptr, ptr %24, align 8
  %26 = icmp ne ptr %25, null
  br i1 %26, label %28, label %27

27:                                               ; preds = %23
  store i32 2, ptr %7, align 4
  br label %39

28:                                               ; preds = %23
  %29 = load ptr, ptr %6, align 8
  %30 = load ptr, ptr %29, align 8
  %31 = load ptr, ptr %5, align 8
  %32 = call i32 @g_ascii_strcasecmp(ptr noundef %30, ptr noundef %31)
  %33 = icmp eq i32 %32, 0
  br i1 %33, label %34, label %35

34:                                               ; preds = %28
  store i1 true, ptr %3, align 1
  store i32 1, ptr %7, align 4
  br label %39

35:                                               ; preds = %28
  br label %36

36:                                               ; preds = %35
  %37 = load ptr, ptr %6, align 8
  %38 = getelementptr ptr, ptr %37, i32 1
  store ptr %38, ptr %6, align 8
  br label %23, !llvm.loop !8

39:                                               ; preds = %34, %27
  call void @llvm.lifetime.end.p0(i64 8, ptr %6) #19
  %40 = load i32, ptr %7, align 4
  switch i32 %40, label %44 [
    i32 2, label %41
    i32 1, label %42
  ]

41:                                               ; preds = %39
  store i1 false, ptr %3, align 1
  br label %42

42:                                               ; preds = %41, %39, %18
  %43 = load i1, ptr %3, align 1
  ret i1 %43

44:                                               ; preds = %39
  unreachable
}

; Function Attrs: null_pointer_is_valid sspstrong uwtable
define internal void @log_write_dispatch(ptr noundef %0, i32 noundef %1, ptr noundef %2, i64 noundef %3, ptr noundef %4, ptr noundef %5, ptr noundef %6, ptr noundef %7) #1 {
  %9 = alloca ptr, align 8
  %10 = alloca i32, align 4
  %11 = alloca ptr, align 8
  %12 = alloca i64, align 8
  %13 = alloca ptr, align 8
  %14 = alloca ptr, align 8
  %15 = alloca ptr, align 8
  %16 = alloca ptr, align 8
  %17 = alloca i8, align 1
  %18 = alloca ptr, align 8
  %19 = alloca [1 x %struct.__va_list_tag], align 16
  store ptr %0, ptr %9, align 8
  store i32 %1, ptr %10, align 4
  store ptr %2, ptr %11, align 8
  store i64 %3, ptr %12, align 8
  store ptr %4, ptr %13, align 8
  store ptr %5, ptr %14, align 8
  store ptr %6, ptr %15, align 8
  store ptr %7, ptr %16, align 8
  call void @llvm.lifetime.start.p0(i64 1, ptr %17) #19
  store i8 0, ptr %17, align 1
  call void @llvm.lifetime.start.p0(i64 8, ptr %18) #19
  store ptr null, ptr %18, align 8
  call void @llvm.lifetime.start.p0(i64 24, ptr %19) #19
  %20 = load i32, ptr %10, align 4
  %21 = load i32, ptr @fatal_log_level, align 4
  %22 = icmp uge i32 %20, %21
  br i1 %22, label %23, label %27

23:                                               ; preds = %8
  %24 = load i32, ptr %10, align 4
  %25 = icmp ne i32 %24, 8
  br i1 %25, label %26, label %27

26:                                               ; preds = %23
  store i8 1, ptr %17, align 1
  store ptr @.str.64, ptr %18, align 8
  br label %42

27:                                               ; preds = %23, %8
  %28 = load ptr, ptr @fatal_filter, align 8
  %29 = icmp ne ptr %28, null
  br i1 %29, label %30, label %41

30:                                               ; preds = %27
  %31 = load ptr, ptr @fatal_filter, align 8
  %32 = load ptr, ptr %9, align 8
  %33 = call zeroext i1 @filter_contains(ptr noundef %31, ptr noundef %32)
  br i1 %33, label %34, label %40

34:                                               ; preds = %30
  %35 = load ptr, ptr @fatal_filter, align 8
  %36 = getelementptr inbounds nuw %struct.log_filter_t, ptr %35, i32 0, i32 1
  %37 = load i8, ptr %36, align 8, !range !6, !noundef !7
  %38 = trunc i8 %37 to i1
  br i1 %38, label %39, label %40

39:                                               ; preds = %34
  store i8 1, ptr %17, align 1
  store ptr @.str.65, ptr %18, align 8
  br label %40

40:                                               ; preds = %39, %34, %30
  br label %41

41:                                               ; preds = %40, %27
  br label %42

42:                                               ; preds = %41, %26
  %43 = load ptr, ptr @custom_log, align 8
  %44 = icmp ne ptr %43, null
  br i1 %44, label %45, label %74

45:                                               ; preds = %42
  %46 = getelementptr inbounds [1 x %struct.__va_list_tag], ptr %19, i64 0, i64 0
  %47 = load ptr, ptr %16, align 8
  call void @llvm.va_copy.p0(ptr %46, ptr %47)
  %48 = load ptr, ptr @custom_log, align 8
  %49 = load ptr, ptr %14, align 8
  %50 = getelementptr inbounds nuw %struct.ws_log_manifest_t, ptr %49, i32 0, i32 0
  %51 = load ptr, ptr %14, align 8
  %52 = getelementptr inbounds nuw %struct.ws_log_manifest_t, ptr %51, i32 0, i32 1
  %53 = load i64, ptr %52, align 8
  %54 = load ptr, ptr %14, align 8
  %55 = getelementptr inbounds nuw %struct.ws_log_manifest_t, ptr %54, i32 0, i32 2
  %56 = load i64, ptr %55, align 8
  %57 = load ptr, ptr %9, align 8
  %58 = load i32, ptr %10, align 4
  %59 = load ptr, ptr %11, align 8
  %60 = load i64, ptr %12, align 8
  %61 = load ptr, ptr %13, align 8
  %62 = load ptr, ptr %15, align 8
  %63 = getelementptr inbounds [1 x %struct.__va_list_tag], ptr %19, i64 0, i64 0
  call void @log_write_do_work(ptr noundef %48, i1 noundef zeroext false, ptr noundef %50, i64 noundef %53, i64 noundef %56, ptr noundef %57, i32 noundef %58, ptr noundef %59, i64 noundef %60, ptr noundef %61, ptr noundef %62, ptr noundef %63)
  %64 = getelementptr inbounds [1 x %struct.__va_list_tag], ptr %19, i64 0, i64 0
  call void @llvm.va_end.p0(ptr %64)
  %65 = load ptr, ptr %18, align 8
  %66 = icmp ne ptr %65, null
  br i1 %66, label %67, label %73

67:                                               ; preds = %45
  %68 = load ptr, ptr @custom_log, align 8
  %69 = load ptr, ptr %14, align 8
  %70 = getelementptr inbounds nuw %struct.ws_log_manifest_t, ptr %69, i32 0, i32 2
  %71 = load i64, ptr %70, align 8
  %72 = load ptr, ptr %18, align 8
  call void @log_write_fatal_msg(ptr noundef %68, i64 noundef %71, ptr noundef %72)
  br label %73

73:                                               ; preds = %67, %45
  br label %74

74:                                               ; preds = %73, %42
  %75 = load ptr, ptr @registered_log_writer, align 8
  %76 = icmp ne ptr %75, null
  br i1 %76, label %77, label %89

77:                                               ; preds = %74
  %78 = load ptr, ptr @registered_log_writer, align 8
  %79 = load ptr, ptr %9, align 8
  %80 = load i32, ptr %10, align 4
  %81 = load ptr, ptr %11, align 8
  %82 = load i64, ptr %12, align 8
  %83 = load ptr, ptr %13, align 8
  %84 = load ptr, ptr %18, align 8
  %85 = load ptr, ptr %14, align 8
  %86 = load ptr, ptr %15, align 8
  %87 = load ptr, ptr %16, align 8
  %88 = load ptr, ptr @registered_log_writer_data, align 8
  call void %78(ptr noundef %79, i32 noundef %80, ptr noundef %81, i64 noundef %82, ptr noundef %83, ptr noundef %84, ptr noundef %85, ptr noundef %86, ptr noundef %87, ptr noundef %88)
  br label %119

89:                                               ; preds = %74
  %90 = load i32, ptr %10, align 4
  %91 = call ptr @console_file(i32 noundef %90)
  %92 = load i32, ptr %10, align 4
  %93 = call zeroext i1 @console_color_enabled(i32 noundef %92)
  %94 = load ptr, ptr %14, align 8
  %95 = getelementptr inbounds nuw %struct.ws_log_manifest_t, ptr %94, i32 0, i32 0
  %96 = load ptr, ptr %14, align 8
  %97 = getelementptr inbounds nuw %struct.ws_log_manifest_t, ptr %96, i32 0, i32 1
  %98 = load i64, ptr %97, align 8
  %99 = load ptr, ptr %14, align 8
  %100 = getelementptr inbounds nuw %struct.ws_log_manifest_t, ptr %99, i32 0, i32 2
  %101 = load i64, ptr %100, align 8
  %102 = load ptr, ptr %9, align 8
  %103 = load i32, ptr %10, align 4
  %104 = load ptr, ptr %11, align 8
  %105 = load i64, ptr %12, align 8
  %106 = load ptr, ptr %13, align 8
  %107 = load ptr, ptr %15, align 8
  %108 = load ptr, ptr %16, align 8
  call void @log_write_do_work(ptr noundef %91, i1 noundef zeroext %93, ptr noundef %95, i64 noundef %98, i64 noundef %101, ptr noundef %102, i32 noundef %103, ptr noundef %104, i64 noundef %105, ptr noundef %106, ptr noundef %107, ptr noundef %108)
  %109 = load ptr, ptr %18, align 8
  %110 = icmp ne ptr %109, null
  br i1 %110, label %111, label %118

111:                                              ; preds = %89
  %112 = load i32, ptr %10, align 4
  %113 = call ptr @console_file(i32 noundef %112)
  %114 = load ptr, ptr %14, align 8
  %115 = getelementptr inbounds nuw %struct.ws_log_manifest_t, ptr %114, i32 0, i32 2
  %116 = load i64, ptr %115, align 8
  %117 = load ptr, ptr %18, align 8
  call void @log_write_fatal_msg(ptr noundef %113, i64 noundef %116, ptr noundef %117)
  br label %118

118:                                              ; preds = %111, %89
  br label %119

119:                                              ; preds = %118, %77
  %120 = load i8, ptr %17, align 1, !range !6, !noundef !7
  %121 = trunc i8 %120 to i1
  br i1 %121, label %122, label %123

122:                                              ; preds = %119
  call void @abort() #22
  unreachable

123:                                              ; preds = %119
  call void @llvm.lifetime.end.p0(i64 24, ptr %19) #19
  call void @llvm.lifetime.end.p0(i64 8, ptr %18) #19
  call void @llvm.lifetime.end.p0(i64 1, ptr %17) #19
  ret void
}