; Function Attrs: null_pointer_is_valid sspstrong uwtable
define internal fastcc void @log_write_dispatch(ptr noundef %0, i32 noundef %1, ptr noundef %2, i64 noundef %3, ptr noundef %4, ptr noundef %5, ptr noundef %6, ptr noundef %7) unnamed_addr #1 {
  %9 = alloca [1 x %struct.__va_list_tag], align 16
  call void @llvm.lifetime.start.p0(i64 24, ptr nonnull %9) #23
  %10 = load i32, ptr @fatal_log_level, align 4
  %11 = icmp uge i32 %1, %10
  %12 = icmp ne i32 %1, 8
  %or.cond = and i1 %12, %11
  br i1 %or.cond, label %filter_contains.exit.thread, label %13

13:                                               ; preds = %8
  %14 = load ptr, ptr @fatal_filter, align 8
  %.not = icmp eq ptr %14, null
  %15 = icmp eq ptr %0, null
  %or.cond62 = or i1 %15, %.not
  br i1 %or.cond62, label %filter_contains.exit.thread, label %16

16:                                               ; preds = %13
  %17 = load i8, ptr %0, align 1
  %18 = icmp eq i8 %17, 0
  br i1 %18, label %filter_contains.exit.thread, label %19

19:                                               ; preds = %16
  %20 = load ptr, ptr %14, align 8
  %21 = load ptr, ptr %20, align 8
  %.not15.not.i = icmp eq ptr %21, null
  br i1 %.not15.not.i, label %filter_contains.exit.thread, label %.lr.ph.i

22:                                               ; preds = %.lr.ph.i
  %23 = getelementptr i8, ptr %.01016.i, i64 8
  %24 = load ptr, ptr %23, align 8
  %.not.not.i = icmp eq ptr %24, null
  br i1 %.not.not.i, label %filter_contains.exit.thread, label %.lr.ph.i, !llvm.loop !6

.lr.ph.i:                                         ; preds = %19, %22
  %25 = phi ptr [ %24, %22 ], [ %21, %19 ]
  %.01016.i = phi ptr [ %23, %22 ], [ %20, %19 ]
  %26 = tail call i32 @g_ascii_strcasecmp(ptr noundef nonnull %25, ptr noundef nonnull %0)
  %27 = icmp eq i32 %26, 0
  br i1 %27, label %filter_contains.exit, label %22

filter_contains.exit:                             ; preds = %.lr.ph.i
  %28 = load ptr, ptr @fatal_filter, align 8
  %29 = getelementptr inbounds nuw i8, ptr %28, i64 8
  %30 = load i8, ptr %29, align 8, !range !8, !noundef !9
  %31 = trunc nuw i8 %30 to i1
  br i1 %31, label %32, label %filter_contains.exit.thread

32:                                               ; preds = %filter_contains.exit
  br label %filter_contains.exit.thread

filter_contains.exit.thread:                      ; preds = %22, %19, %16, %8, %13, %32, %filter_contains.exit
  %.042 = phi i1 [ true, %32 ], [ false, %filter_contains.exit ], [ false, %13 ], [ true, %8 ], [ false, %16 ], [ false, %19 ], [ false, %22 ]
  %.not46 = phi i1 [ false, %32 ], [ true, %filter_contains.exit ], [ true, %13 ], [ false, %8 ], [ true, %16 ], [ true, %19 ], [ true, %22 ]
  %.0 = phi ptr [ @.str.65, %32 ], [ null, %filter_contains.exit ], [ null, %13 ], [ @.str.64, %8 ], [ null, %16 ], [ null, %19 ], [ null, %22 ]
  %33 = load ptr, ptr @custom_log, align 8
  %.not45 = icmp eq ptr %33, null
  br i1 %.not45, label %44, label %34

34:                                               ; preds = %filter_contains.exit.thread
  call void @llvm.va_copy.p0(ptr nonnull %9, ptr %7)
  %35 = getelementptr inbounds nuw i8, ptr %5, i64 56
  %36 = load i64, ptr %35, align 8
  %37 = getelementptr inbounds nuw i8, ptr %5, i64 64
  %38 = load i64, ptr %37, align 8
  call fastcc void @log_write_do_work(ptr noundef nonnull %33, i1 noundef zeroext false, ptr noundef %5, i64 noundef %36, i64 noundef %38, ptr noundef %0, i32 noundef %1, ptr noundef %2, i64 noundef %3, ptr noundef %4, ptr noundef %6, ptr noundef nonnull %9)
  call void @llvm.va_end.p0(ptr nonnull %9)
  br i1 %.not46, label %44, label %39

39:                                               ; preds = %34
  %40 = load ptr, ptr @custom_log, align 8
  %41 = load i64, ptr %37, align 8
  %42 = load ptr, ptr @registered_progname, align 8
  %43 = call i32 (ptr, i32, ptr, ...) @__fprintf_chk(ptr noundef %40, i32 noundef 2, ptr noundef nonnull @.str.66, ptr noundef %42, i64 noundef %41, ptr noundef nonnull %.0)
  br label %44

44:                                               ; preds = %34, %39, %filter_contains.exit.thread
  %45 = load ptr, ptr @registered_log_writer, align 8
  %.not47 = icmp eq ptr %45, null
  br i1 %.not47, label %48, label %46

46:                                               ; preds = %44
  %47 = load ptr, ptr @registered_log_writer_data, align 8
  call void %45(ptr noundef %0, i32 noundef %1, ptr noundef %2, i64 noundef %3, ptr noundef %4, ptr noundef %.0, ptr noundef %5, ptr noundef %6, ptr noundef %7, ptr noundef %47)
  br label %65

48:                                               ; preds = %44
  %49 = icmp ult i32 %1, 4
  br i1 %49, label %50, label %console_file.exit

50:                                               ; preds = %48
  %51 = load i8, ptr @stdout_logging_enabled, align 1, !range !8, !noundef !9
  %52 = trunc nuw i8 %51 to i1
  %.0.i56 = load ptr, ptr @stdout, align 8
  %.0.i61 = load ptr, ptr @stderr, align 8
  %.0.i59 = select i1 %52, ptr %.0.i56, ptr %.0.i61
  %spec.select = select i1 %52, ptr @stdout_color_enabled, ptr @stderr_color_enabled
  br label %console_color_enabled.exit

console_file.exit:                                ; preds = %48
  %.0.i = load ptr, ptr @stderr, align 8
  br label %console_color_enabled.exit

console_color_enabled.exit:                       ; preds = %50, %console_file.exit
  %.0.i58 = phi ptr [ %.0.i, %console_file.exit ], [ %.0.i59, %50 ]
  %.0.in.in.i = phi ptr [ @stderr_color_enabled, %console_file.exit ], [ %spec.select, %50 ]
  %.0.in.i49 = load i8, ptr %.0.in.in.i, align 1, !range !8, !noundef !9
  %.0.i50 = trunc nuw i8 %.0.in.i49 to i1
  %53 = getelementptr inbounds nuw i8, ptr %5, i64 56
  %54 = load i64, ptr %53, align 8
  %55 = getelementptr inbounds nuw i8, ptr %5, i64 64
  %56 = load i64, ptr %55, align 8
  call fastcc void @log_write_do_work(ptr noundef %.0.i58, i1 noundef zeroext %.0.i50, ptr noundef %5, i64 noundef %54, i64 noundef %56, ptr noundef %0, i32 noundef %1, ptr noundef %2, i64 noundef %3, ptr noundef %4, ptr noundef %6, ptr noundef %7)
  br i1 %.not46, label %65, label %57

57:                                               ; preds = %console_color_enabled.exit
  br i1 %49, label %58, label %61

58:                                               ; preds = %57
  %59 = load i8, ptr @stdout_logging_enabled, align 1, !range !8, !noundef !9
  %60 = trunc nuw i8 %59 to i1
  br i1 %60, label %console_file.exit53, label %61

61:                                               ; preds = %58, %57
  br label %console_file.exit53

console_file.exit53:                              ; preds = %58, %61
  %.0.in.i51 = phi ptr [ @stderr, %61 ], [ @stdout, %58 ]
  %.0.i52 = load ptr, ptr %.0.in.i51, align 8
  %62 = load i64, ptr %55, align 8
  %63 = load ptr, ptr @registered_progname, align 8
  %64 = call i32 (ptr, i32, ptr, ...) @__fprintf_chk(ptr noundef %.0.i52, i32 noundef 2, ptr noundef nonnull @.str.66, ptr noundef %63, i64 noundef %62, ptr noundef nonnull %.0)
  br label %65

65:                                               ; preds = %console_color_enabled.exit, %console_file.exit53, %46
  br i1 %.042, label %66, label %67

66:                                               ; preds = %65
  call void @abort() #24
  unreachable

67:                                               ; preds = %65
  call void @llvm.lifetime.end.p0(i64 24, ptr nonnull %9) #23
  ret void
}